
Botones_juego_Lab_6.elf:     file format elf32-avr

Sections:
Idx Name          Size      VMA       LMA       File off  Algn
  0 .data         0000001e  00800100  000001f2  00000266  2**0
                  CONTENTS, ALLOC, LOAD, DATA
  1 .text         000001f2  00000000  00000000  00000074  2**1
                  CONTENTS, ALLOC, LOAD, READONLY, CODE
  2 .comment      00000030  00000000  00000000  00000284  2**0
                  CONTENTS, READONLY
  3 .note.gnu.avr.deviceinfo 00000040  00000000  00000000  000002b4  2**2
                  CONTENTS, READONLY
  4 .debug_aranges 00000068  00000000  00000000  000002f4  2**0
                  CONTENTS, READONLY, DEBUGGING
  5 .debug_info   000008d4  00000000  00000000  0000035c  2**0
                  CONTENTS, READONLY, DEBUGGING
  6 .debug_abbrev 0000075b  00000000  00000000  00000c30  2**0
                  CONTENTS, READONLY, DEBUGGING
  7 .debug_line   000003b9  00000000  00000000  0000138b  2**0
                  CONTENTS, READONLY, DEBUGGING
  8 .debug_frame  000000f8  00000000  00000000  00001744  2**2
                  CONTENTS, READONLY, DEBUGGING
  9 .debug_str    00000412  00000000  00000000  0000183c  2**0
                  CONTENTS, READONLY, DEBUGGING
 10 .debug_loc    00000151  00000000  00000000  00001c4e  2**0
                  CONTENTS, READONLY, DEBUGGING
 11 .debug_ranges 00000048  00000000  00000000  00001d9f  2**0
                  CONTENTS, READONLY, DEBUGGING

Disassembly of section .text:

00000000 <__vectors>:
   0:	0c 94 34 00 	jmp	0x68	; 0x68 <__ctors_end>
   4:	0c 94 51 00 	jmp	0xa2	; 0xa2 <__bad_interrupt>
   8:	0c 94 51 00 	jmp	0xa2	; 0xa2 <__bad_interrupt>
   c:	0c 94 51 00 	jmp	0xa2	; 0xa2 <__bad_interrupt>
  10:	0c 94 51 00 	jmp	0xa2	; 0xa2 <__bad_interrupt>
  14:	0c 94 6e 00 	jmp	0xdc	; 0xdc <__vector_5>
  18:	0c 94 51 00 	jmp	0xa2	; 0xa2 <__bad_interrupt>
  1c:	0c 94 51 00 	jmp	0xa2	; 0xa2 <__bad_interrupt>
  20:	0c 94 51 00 	jmp	0xa2	; 0xa2 <__bad_interrupt>
  24:	0c 94 51 00 	jmp	0xa2	; 0xa2 <__bad_interrupt>
  28:	0c 94 51 00 	jmp	0xa2	; 0xa2 <__bad_interrupt>
  2c:	0c 94 51 00 	jmp	0xa2	; 0xa2 <__bad_interrupt>
  30:	0c 94 51 00 	jmp	0xa2	; 0xa2 <__bad_interrupt>
  34:	0c 94 51 00 	jmp	0xa2	; 0xa2 <__bad_interrupt>
  38:	0c 94 51 00 	jmp	0xa2	; 0xa2 <__bad_interrupt>
  3c:	0c 94 51 00 	jmp	0xa2	; 0xa2 <__bad_interrupt>
  40:	0c 94 51 00 	jmp	0xa2	; 0xa2 <__bad_interrupt>
  44:	0c 94 51 00 	jmp	0xa2	; 0xa2 <__bad_interrupt>
  48:	0c 94 e0 00 	jmp	0x1c0	; 0x1c0 <__vector_18>
  4c:	0c 94 51 00 	jmp	0xa2	; 0xa2 <__bad_interrupt>
  50:	0c 94 51 00 	jmp	0xa2	; 0xa2 <__bad_interrupt>
  54:	0c 94 51 00 	jmp	0xa2	; 0xa2 <__bad_interrupt>
  58:	0c 94 51 00 	jmp	0xa2	; 0xa2 <__bad_interrupt>
  5c:	0c 94 51 00 	jmp	0xa2	; 0xa2 <__bad_interrupt>
  60:	0c 94 51 00 	jmp	0xa2	; 0xa2 <__bad_interrupt>
  64:	0c 94 51 00 	jmp	0xa2	; 0xa2 <__bad_interrupt>

00000068 <__ctors_end>:
  68:	11 24       	eor	r1, r1
  6a:	1f be       	out	0x3f, r1	; 63
  6c:	cf ef       	ldi	r28, 0xFF	; 255
  6e:	d8 e0       	ldi	r29, 0x08	; 8
  70:	de bf       	out	0x3e, r29	; 62
  72:	cd bf       	out	0x3d, r28	; 61

00000074 <__do_copy_data>:
  74:	11 e0       	ldi	r17, 0x01	; 1
  76:	a0 e0       	ldi	r26, 0x00	; 0
  78:	b1 e0       	ldi	r27, 0x01	; 1
  7a:	e2 ef       	ldi	r30, 0xF2	; 242
  7c:	f1 e0       	ldi	r31, 0x01	; 1
  7e:	02 c0       	rjmp	.+4      	; 0x84 <__do_copy_data+0x10>
  80:	05 90       	lpm	r0, Z+
  82:	0d 92       	st	X+, r0
  84:	ae 31       	cpi	r26, 0x1E	; 30
  86:	b1 07       	cpc	r27, r17
  88:	d9 f7       	brne	.-10     	; 0x80 <__do_copy_data+0xc>

0000008a <__do_clear_bss>:
  8a:	21 e0       	ldi	r18, 0x01	; 1
  8c:	ae e1       	ldi	r26, 0x1E	; 30
  8e:	b1 e0       	ldi	r27, 0x01	; 1
  90:	01 c0       	rjmp	.+2      	; 0x94 <.do_clear_bss_start>

00000092 <.do_clear_bss_loop>:
  92:	1d 92       	st	X+, r1

00000094 <.do_clear_bss_start>:
  94:	ae 31       	cpi	r26, 0x1E	; 30
  96:	b2 07       	cpc	r27, r18
  98:	e1 f7       	brne	.-8      	; 0x92 <.do_clear_bss_loop>
  9a:	0e 94 5e 00 	call	0xbc	; 0xbc <main>
  9e:	0c 94 f7 00 	jmp	0x1ee	; 0x1ee <_exit>

000000a2 <__bad_interrupt>:
  a2:	0c 94 00 00 	jmp	0	; 0x0 <__vectors>

000000a6 <initPCINT2>:
    }
}

void initPCINT2(void){				//INICIA LAS INTERRUPCIONES

	PCICR |= (1 << PCIE2);			//HABILITA LAS INTERRUPCION EN PCINT1
  a6:	e8 e6       	ldi	r30, 0x68	; 104
  a8:	f0 e0       	ldi	r31, 0x00	; 0
  aa:	80 81       	ld	r24, Z
  ac:	84 60       	ori	r24, 0x04	; 4
  ae:	80 83       	st	Z, r24
	PCMSK2 |= (1 << PCINT18) | (1 << PCINT19) | (1 << PCINT20) | (1 << PCINT21) | (1 << PCINT22) | (1 << PCINT23);		// INDICA QUE LAS INTERRUPCIONES SE HACEN EN PC0-PC2
  b0:	ed e6       	ldi	r30, 0x6D	; 109
  b2:	f0 e0       	ldi	r31, 0x00	; 0
  b4:	80 81       	ld	r24, Z
  b6:	8c 6f       	ori	r24, 0xFC	; 252
  b8:	80 83       	st	Z, r24
  ba:	08 95       	ret

000000bc <main>:

int main(void)
{
    
	
	PORTD |= (1 << PORTD2) | (1 <<PORTD3) | (1 << PORTD4) | (1 <<PORTD5) | (1 << PORTD6) | (1 <<PORTD7);			// BOtones en el puerto D
  bc:	8b b1       	in	r24, 0x0b	; 11
  be:	8c 6f       	ori	r24, 0xFC	; 252
  c0:	8b b9       	out	0x0b, r24	; 11
	DDRD &= ~((1 << PORTD2) | (1 <<PORTD3) | (1 << PORTD4) | (1 <<PORTD5) | (1 << PORTD6) | (1 <<PORTD7)) ;
  c2:	8a b1       	in	r24, 0x0a	; 10
  c4:	83 70       	andi	r24, 0x03	; 3
  c6:	8a b9       	out	0x0a, r24	; 10
	
	initUART9600();
  c8:	0e 94 b9 00 	call	0x172	; 0x172 <initUART9600>
	initPCINT2();
  cc:	0e 94 53 00 	call	0xa6	; 0xa6 <initPCINT2>
	
	send_Button("UART FUNCIONANDO\n");
  d0:	80 e0       	ldi	r24, 0x00	; 0
  d2:	91 e0       	ldi	r25, 0x01	; 1
  d4:	0e 94 ea 00 	call	0x1d4	; 0x1d4 <send_Button>

	sei();
  d8:	78 94       	sei
  da:	ff cf       	rjmp	.-2      	; 0xda <main+0x1e>

000000dc <__vector_5>:
}


	
	
ISR(PCINT2_vect){
  dc:	1f 92       	push	r1
  de:	0f 92       	push	r0
  e0:	0f b6       	in	r0, 0x3f	; 63
  e2:	0f 92       	push	r0
  e4:	11 24       	eor	r1, r1
  e6:	2f 93       	push	r18
  e8:	3f 93       	push	r19
  ea:	4f 93       	push	r20
  ec:	5f 93       	push	r21
  ee:	6f 93       	push	r22
  f0:	7f 93       	push	r23
  f2:	8f 93       	push	r24
  f4:	9f 93       	push	r25
  f6:	af 93       	push	r26
  f8:	bf 93       	push	r27
  fa:	ef 93       	push	r30
  fc:	ff 93       	push	r31
	
	 if (!(PIND & (1 << PD2))) {
  fe:	4a 99       	sbic	0x09, 2	; 9
 100:	05 c0       	rjmp	.+10     	; 0x10c <__vector_5+0x30>
		 send_Button("U");
 102:	82 e1       	ldi	r24, 0x12	; 18
 104:	91 e0       	ldi	r25, 0x01	; 1
 106:	0e 94 ea 00 	call	0x1d4	; 0x1d4 <send_Button>
 10a:	22 c0       	rjmp	.+68     	; 0x150 <__vector_5+0x74>
		 }
		  else if (!(PIND & (1 << PD3))) {
 10c:	4b 99       	sbic	0x09, 3	; 9
 10e:	05 c0       	rjmp	.+10     	; 0x11a <__vector_5+0x3e>
		 send_Button("D");
 110:	84 e1       	ldi	r24, 0x14	; 20
 112:	91 e0       	ldi	r25, 0x01	; 1
 114:	0e 94 ea 00 	call	0x1d4	; 0x1d4 <send_Button>
 118:	1b c0       	rjmp	.+54     	; 0x150 <__vector_5+0x74>
		 } 
		 else if (!(PIND & (1 << PD4))) {
 11a:	4c 99       	sbic	0x09, 4	; 9
 11c:	05 c0       	rjmp	.+10     	; 0x128 <__vector_5+0x4c>
		 send_Button("L");
 11e:	86 e1       	ldi	r24, 0x16	; 22
 120:	91 e0       	ldi	r25, 0x01	; 1
 122:	0e 94 ea 00 	call	0x1d4	; 0x1d4 <send_Button>
 126:	14 c0       	rjmp	.+40     	; 0x150 <__vector_5+0x74>
		 } 
		 else if (!(PIND & (1 << PD5))) {
 128:	4d 99       	sbic	0x09, 5	; 9
 12a:	05 c0       	rjmp	.+10     	; 0x136 <__vector_5+0x5a>
		 send_Button("R");
 12c:	88 e1       	ldi	r24, 0x18	; 24
 12e:	91 e0       	ldi	r25, 0x01	; 1
 130:	0e 94 ea 00 	call	0x1d4	; 0x1d4 <send_Button>
 134:	0d c0       	rjmp	.+26     	; 0x150 <__vector_5+0x74>
		 } 
		 else if (!(PIND & (1 << PD6))) {
 136:	4e 99       	sbic	0x09, 6	; 9
 138:	05 c0       	rjmp	.+10     	; 0x144 <__vector_5+0x68>
		 send_Button("A");
 13a:	8a e1       	ldi	r24, 0x1A	; 26
 13c:	91 e0       	ldi	r25, 0x01	; 1
 13e:	0e 94 ea 00 	call	0x1d4	; 0x1d4 <send_Button>
 142:	06 c0       	rjmp	.+12     	; 0x150 <__vector_5+0x74>
		 } 
		 else if (!(PIND & (1 << PD7))) {
 144:	4f 99       	sbic	0x09, 7	; 9
 146:	04 c0       	rjmp	.+8      	; 0x150 <__vector_5+0x74>
		 send_Button("B");
 148:	8c e1       	ldi	r24, 0x1C	; 28
 14a:	91 e0       	ldi	r25, 0x01	; 1
 14c:	0e 94 ea 00 	call	0x1d4	; 0x1d4 <send_Button>
	 }
	
 150:	ff 91       	pop	r31
 152:	ef 91       	pop	r30
 154:	bf 91       	pop	r27
 156:	af 91       	pop	r26
 158:	9f 91       	pop	r25
 15a:	8f 91       	pop	r24
 15c:	7f 91       	pop	r23
 15e:	6f 91       	pop	r22
 160:	5f 91       	pop	r21
 162:	4f 91       	pop	r20
 164:	3f 91       	pop	r19
 166:	2f 91       	pop	r18
 168:	0f 90       	pop	r0
 16a:	0f be       	out	0x3f, r0	; 63
 16c:	0f 90       	pop	r0
 16e:	1f 90       	pop	r1
 170:	18 95       	reti

00000172 <initUART9600>:
volatile char bufferRX;		//Volatil porque cambia
uint16_t cont = 0;  // contador
void initUART9600(void){
	//Configurar RXy TX
	
	DDRD &= ~(1 << DDD0);		//Rx entrada
 172:	8a b1       	in	r24, 0x0a	; 10
 174:	8e 7f       	andi	r24, 0xFE	; 254
 176:	8a b9       	out	0x0a, r24	; 10
	DDRD |= (1 << DDD1);		//TX salida
 178:	8a b1       	in	r24, 0x0a	; 10
 17a:	82 60       	ori	r24, 0x02	; 2
 17c:	8a b9       	out	0x0a, r24	; 10
	
	UCSR0A = 0;
 17e:	e0 ec       	ldi	r30, 0xC0	; 192
 180:	f0 e0       	ldi	r31, 0x00	; 0
 182:	10 82       	st	Z, r1
	UCSR0A |= (1 << U2X0);		// Fast Mode de comunicacion
 184:	80 81       	ld	r24, Z
 186:	82 60       	ori	r24, 0x02	; 2
 188:	80 83       	st	Z, r24
	
	
	UCSR0B = 0;			//configuracion de registros
 18a:	e1 ec       	ldi	r30, 0xC1	; 193
 18c:	f0 e0       	ldi	r31, 0x00	; 0
 18e:	10 82       	st	Z, r1
	UCSR0B |= (1 << RXCIE0) | (1 << RXEN0) | (1 << TXEN0); //activa interrupcion para rx y TX
 190:	80 81       	ld	r24, Z
 192:	88 69       	ori	r24, 0x98	; 152
 194:	80 83       	st	Z, r24
	// txen0 habilidta la transmision uart
	// rxeno el micro recibe los datos
	// Activa la reecepcion y transmision de datos
	
	
	UCSR0C = 0;			// configuracion de registros
 196:	e2 ec       	ldi	r30, 0xC2	; 194
 198:	f0 e0       	ldi	r31, 0x00	; 0
 19a:	10 82       	st	Z, r1
	UCSR0C |= (1 << UCSZ01) | (1 << UCSZ00);		// tamaño del caracter un bit y sin pariedad
 19c:	80 81       	ld	r24, Z
 19e:	86 60       	ori	r24, 0x06	; 6
 1a0:	80 83       	st	Z, r24
	
	UBRR0 = 207;		// 9600 Baud rate
 1a2:	8f ec       	ldi	r24, 0xCF	; 207
 1a4:	90 e0       	ldi	r25, 0x00	; 0
 1a6:	90 93 c5 00 	sts	0x00C5, r25	; 0x8000c5 <__TEXT_REGION_LENGTH__+0x7f80c5>
 1aa:	80 93 c4 00 	sts	0x00C4, r24	; 0x8000c4 <__TEXT_REGION_LENGTH__+0x7f80c4>
	
	sei();
 1ae:	78 94       	sei
 1b0:	08 95       	ret

000001b2 <wUART>:
	
}

void wUART(char singleChar){
	
	while(!(UCSR0A & (1 << UDRE0)));  // si el bufer esta lleno no envia ni recibe
 1b2:	90 91 c0 00 	lds	r25, 0x00C0	; 0x8000c0 <__TEXT_REGION_LENGTH__+0x7f80c0>
 1b6:	95 ff       	sbrs	r25, 5
 1b8:	fc cf       	rjmp	.-8      	; 0x1b2 <wUART>
	UDR0 = singleChar;  //Lee y guarda
 1ba:	80 93 c6 00 	sts	0x00C6, r24	; 0x8000c6 <__TEXT_REGION_LENGTH__+0x7f80c6>
 1be:	08 95       	ret

000001c0 <__vector_18>:
	
}

ISR (USART_RX_vect){
 1c0:	1f 92       	push	r1
 1c2:	0f 92       	push	r0
 1c4:	0f b6       	in	r0, 0x3f	; 63
 1c6:	0f 92       	push	r0
 1c8:	11 24       	eor	r1, r1
	

}
 1ca:	0f 90       	pop	r0
 1cc:	0f be       	out	0x3f, r0	; 63
 1ce:	0f 90       	pop	r0
 1d0:	1f 90       	pop	r1
 1d2:	18 95       	reti

000001d4 <send_Button>:


void send_Button (const char *str){
 1d4:	cf 93       	push	r28
 1d6:	df 93       	push	r29
 1d8:	ec 01       	movw	r28, r24
	while (*str){
 1da:	03 c0       	rjmp	.+6      	; 0x1e2 <send_Button+0xe>
		wUART(*str++);
 1dc:	21 96       	adiw	r28, 0x01	; 1
 1de:	0e 94 d9 00 	call	0x1b2	; 0x1b2 <wUART>

}


void send_Button (const char *str){
	while (*str){
 1e2:	88 81       	ld	r24, Y
 1e4:	81 11       	cpse	r24, r1
 1e6:	fa cf       	rjmp	.-12     	; 0x1dc <send_Button+0x8>
		wUART(*str++);
	}
 1e8:	df 91       	pop	r29
 1ea:	cf 91       	pop	r28
 1ec:	08 95       	ret

000001ee <_exit>:
 1ee:	f8 94       	cli

000001f0 <__stop_program>:
 1f0:	ff cf       	rjmp	.-2      	; 0x1f0 <__stop_program>
